target datalayout = "e-m:e-p270:32:32-p271:32:32-p272:64:64-i64:64-i128:128-f80:128-n8:16:32:64-S128"
target triple = "x86_64-pc-linux-gnu"

%"struct.std::atomic.7" = type { %"struct.std::__atomic_base.8" }
%"struct.std::__atomic_base.8" = type { i8 }
%"class.google::protobuf::internal::LogMessage" = type { i32, ptr, i32, %"class.std::__cxx11::basic_string" }
%"class.std::__cxx11::basic_string" = type { %"struct.std::__cxx11::basic_string<char>::_Alloc_hider", i64, %union.anon }
%"struct.std::__cxx11::basic_string<char>::_Alloc_hider" = type { ptr }
%union.anon = type { i64, [8 x i8] }
%"class.google::protobuf::internal::LogFinisher" = type { i8 }
%"class.google::protobuf::io::EpsCopyOutputStream" = type <{ ptr, ptr, [32 x i8], ptr, i8, i8, i8, [5 x i8] }>

@.str.2 = private unnamed_addr constant [42 x i8] c"third_party/protobuf-lite/message_lite.cc\00", align 1
@.str.13 = private unnamed_addr constant [37 x i8] c"CHECK failed: target + size == res: \00", align 1
@_ZN6google8protobuf2io17CodedOutputStream36default_serialization_deterministic_E = external global %"struct.std::atomic.7", align 1

; Function Attrs: noreturn nounwind uwtable
define linkonce_odr hidden void @__clang_call_terminate(ptr noundef %0) #9 comdat {
  %2 = call ptr @__cxa_begin_catch(ptr %0) #3
  call void @_ZSt9terminatev() #17
  unreachable
}

; Function Attrs: mustprogress nounwind uwtable
define linkonce_odr noundef i32 @_ZStanSt12memory_orderSt23__memory_order_modifier(i32 noundef %0, i32 noundef %1) #5 comdat {
  %3 = alloca i32, align 4
  %4 = alloca i32, align 4
  store i32 %0, ptr %3, align 4
  store i32 %1, ptr %4, align 4
  %5 = load i32, ptr %3, align 4
  %6 = load i32, ptr %4, align 4
  %7 = and i32 %5, %6
  ret i32 %7
}

; Function Attrs: mustprogress nounwind uwtable
define linkonce_odr noundef zeroext i1 @_ZNKSt6atomicIbE4loadESt12memory_order(ptr noundef nonnull align 1 dereferenceable(1) %0, i32 noundef %1) #5 comdat align 2 personality ptr @__gxx_personality_v0 {
  %3 = alloca ptr, align 8
  %4 = alloca i32, align 4
  %5 = alloca i32, align 4
  %6 = alloca i8, align 1
  %7 = alloca ptr, align 8
  %8 = alloca i32, align 4
  store ptr %0, ptr %7, align 8
  store i32 %1, ptr %8, align 4
  %9 = load ptr, ptr %7, align 8
  %10 = getelementptr inbounds %"struct.std::atomic.7", ptr %9, i32 0, i32 0
  %11 = load i32, ptr %8, align 4
  store ptr %10, ptr %3, align 8
  store i32 %11, ptr %4, align 4
  %12 = load ptr, ptr %3, align 8
  %13 = load i32, ptr %4, align 4
  %14 = invoke noundef i32 @_ZStanSt12memory_orderSt23__memory_order_modifier(i32 noundef %13, i32 noundef 65535)
          to label %15 unwind label %23

15:                                               ; preds = %2
  store i32 %14, ptr %5, align 4
  %16 = load i32, ptr %4, align 4
  switch i32 %16, label %17 [
    i32 1, label %19
    i32 2, label %19
    i32 5, label %21
  ]

17:                                               ; preds = %15
  %18 = load atomic i8, ptr %12 monotonic, align 1
  store i8 %18, ptr %6, align 1
  br label %26

19:                                               ; preds = %15, %15
  %20 = load atomic i8, ptr %12 acquire, align 1
  store i8 %20, ptr %6, align 1
  br label %26

21:                                               ; preds = %15
  %22 = load atomic i8, ptr %12 seq_cst, align 1
  store i8 %22, ptr %6, align 1
  br label %26

23:                                               ; preds = %2
  %24 = landingpad { ptr, i32 }
          catch ptr null
  %25 = extractvalue { ptr, i32 } %24, 0
  call void @__clang_call_terminate(ptr %25) #17
  unreachable

26:                                               ; preds = %21, %19, %17
  %27 = load i8, ptr %6, align 1
  %28 = trunc i8 %27 to i1
  ret i1 %28
}

; Function Attrs: mustprogress nounwind uwtable
define linkonce_odr void @_ZN6google8protobuf2io19EpsCopyOutputStreamC2EPvib(ptr noundef nonnull align 8 dereferenceable(59) %0, ptr noundef %1, i32 noundef %2, i1 noundef zeroext %3) unnamed_addr #5 comdat align 2 {
  %5 = alloca ptr, align 8
  %6 = alloca ptr, align 8
  %7 = alloca i32, align 4
  %8 = alloca i8, align 1
  store ptr %0, ptr %5, align 8
  store ptr %1, ptr %6, align 8
  store i32 %2, ptr %7, align 4
  %9 = zext i1 %3 to i8
  store i8 %9, ptr %8, align 1
  %10 = load ptr, ptr %5, align 8
  %11 = getelementptr inbounds %"class.google::protobuf::io::EpsCopyOutputStream", ptr %10, i32 0, i32 0
  %12 = load ptr, ptr %6, align 8
  %13 = load i32, ptr %7, align 4
  %14 = sext i32 %13 to i64
  %15 = getelementptr inbounds i8, ptr %12, i64 %14
  store ptr %15, ptr %11, align 8
  %16 = getelementptr inbounds %"class.google::protobuf::io::EpsCopyOutputStream", ptr %10, i32 0, i32 1
  store ptr null, ptr %16, align 8
  %17 = getelementptr inbounds %"class.google::protobuf::io::EpsCopyOutputStream", ptr %10, i32 0, i32 3
  store ptr null, ptr %17, align 8
  %18 = getelementptr inbounds %"class.google::protobuf::io::EpsCopyOutputStream", ptr %10, i32 0, i32 4
  store i8 0, ptr %18, align 8
  %19 = getelementptr inbounds %"class.google::protobuf::io::EpsCopyOutputStream", ptr %10, i32 0, i32 5
  store i8 0, ptr %19, align 1
  %20 = getelementptr inbounds %"class.google::protobuf::io::EpsCopyOutputStream", ptr %10, i32 0, i32 6
  %21 = load i8, ptr %8, align 1
  %22 = trunc i8 %21 to i1
  %23 = zext i1 %22 to i8
  store i8 %23, ptr %20, align 2
  ret void
}

; Function Attrs: mustprogress nounwind uwtable
define linkonce_odr noundef zeroext i1 @_ZN6google8protobuf2io17CodedOutputStream35IsDefaultSerializationDeterministicEv() #5 comdat align 2 {
  %1 = call noundef zeroext i1 @_ZNKSt6atomicIbE4loadESt12memory_order(ptr noundef nonnull align 1 dereferenceable(1) @_ZN6google8protobuf2io17CodedOutputStream36default_serialization_deterministic_E, i32 noundef 0) #3
  %2 = zext i1 %1 to i32
  %3 = icmp ne i32 %2, 0
  ret i1 %3
}

; Function Attrs: mustprogress uwtable
define linkonce_odr noundef ptr @_ZN6google8protobuf20SerializeToArrayImplERKNS0_11MessageLiteEPhi(ptr noundef nonnull align 8 dereferenceable(16) %0, ptr noundef %1, i32 noundef %2) #4 comdat personality ptr @__gxx_personality_v0 {
  %4 = alloca ptr, align 8
  %5 = alloca ptr, align 8
  %6 = alloca i32, align 4
  %7 = alloca i8, align 1
  %8 = alloca %"class.google::protobuf::io::EpsCopyOutputStream", align 8
  %9 = alloca ptr, align 8
  %10 = alloca %"class.google::protobuf::internal::LogMessage", align 8
  %11 = alloca i1, align 1
  %12 = alloca ptr, align 8
  %13 = alloca i32, align 4
  %14 = alloca %"class.google::protobuf::internal::LogFinisher", align 1
  store ptr %0, ptr %4, align 8
  store ptr %1, ptr %5, align 8
  store i32 %2, ptr %6, align 4
  store i8 0, ptr %7, align 1
  %15 = load ptr, ptr %5, align 8
  %16 = load i32, ptr %6, align 4
  %17 = call noundef zeroext i1 @_ZN6google8protobuf2io17CodedOutputStream35IsDefaultSerializationDeterministicEv()
  call void @_ZN6google8protobuf2io19EpsCopyOutputStreamC2EPvib(ptr noundef nonnull align 8 dereferenceable(59) %8, ptr noundef %15, i32 noundef %16, i1 noundef zeroext %17)
  %18 = load ptr, ptr %4, align 8
  %19 = load ptr, ptr %5, align 8
  %20 = load ptr, ptr %18, align 8
  %21 = getelementptr inbounds ptr, ptr %20, i64 12
  %22 = load ptr, ptr %21, align 8
  %23 = call noundef ptr %22(ptr noundef nonnull align 8 dereferenceable(16) %18, ptr noundef %19, ptr noundef %8)
  store ptr %23, ptr %9, align 8
  br label %24

24:                                               ; preds = %40, %3
  br i1 false, label %25, label %48

25:                                               ; preds = %24
  %26 = load ptr, ptr %5, align 8
  %27 = load i32, ptr %6, align 4
  %28 = sext i32 %27 to i64
  %29 = getelementptr inbounds i8, ptr %26, i64 %28
  %30 = load ptr, ptr %9, align 8
  %31 = icmp eq ptr %29, %30
  store i1 false, ptr %11, align 1
  br i1 %31, label %32, label %33

32:                                               ; preds = %25
  br label %37

33:                                               ; preds = %25
  call void @_ZN6google8protobuf8internal10LogMessageC1ENS0_8LogLevelEPKci(ptr noundef nonnull align 8 dereferenceable(56) %10, i32 noundef 3, ptr noundef @.str.2, i32 noundef 360)
  store i1 true, ptr %11, align 1
  %34 = invoke noundef nonnull align 8 dereferenceable(56) ptr @_ZN6google8protobuf8internal10LogMessagelsEPKc(ptr noundef nonnull align 8 dereferenceable(56) %10, ptr noundef @.str.13)
          to label %35 unwind label %41

35:                                               ; preds = %33
  invoke void @_ZN6google8protobuf8internal11LogFinisheraSERNS1_10LogMessageE(ptr noundef nonnull align 1 dereferenceable(1) %14, ptr noundef nonnull align 8 dereferenceable(56) %34)
          to label %36 unwind label %41

36:                                               ; preds = %35
  br label %37

37:                                               ; preds = %36, %32
  %38 = load i1, ptr %11, align 1
  br i1 %38, label %39, label %40

39:                                               ; preds = %37
  call void @_ZN6google8protobuf8internal10LogMessageD1Ev(ptr noundef nonnull align 8 dereferenceable(56) %10) #3
  br label %40

40:                                               ; preds = %39, %37
  br label %24, !llvm.loop !7

41:                                               ; preds = %35, %33
  %42 = landingpad { ptr, i32 }
          cleanup
  %43 = extractvalue { ptr, i32 } %42, 0
  store ptr %43, ptr %12, align 8
  %44 = extractvalue { ptr, i32 } %42, 1
  store i32 %44, ptr %13, align 4
  %45 = load i1, ptr %11, align 1
  br i1 %45, label %46, label %47

46:                                               ; preds = %41
  call void @_ZN6google8protobuf8internal10LogMessageD1Ev(ptr noundef nonnull align 8 dereferenceable(56) %10) #3
  br label %47

47:                                               ; preds = %46, %41
  br label %50

48:                                               ; preds = %24
  %49 = load ptr, ptr %9, align 8
  ret ptr %49

50:                                               ; preds = %47
  %51 = load ptr, ptr %12, align 8
  %52 = load i32, ptr %13, align 4
  %53 = insertvalue { ptr, i32 } poison, ptr %51, 0
  %54 = insertvalue { ptr, i32 } %53, i32 %52, 1
  resume { ptr, i32 } %54
}

; Function Attrs: mustprogress uwtable
define noundef ptr @_ZNK6google8protobuf11MessageLite31SerializeWithCachedSizesToArrayEPh(ptr noundef nonnull align 8 dereferenceable(16) %0, ptr noundef %1) #4 align 2 {
  %3 = alloca ptr, align 8
  %4 = alloca ptr, align 8
  store ptr %0, ptr %3, align 8
  store ptr %1, ptr %4, align 8
  %5 = load ptr, ptr %3, align 8
  %6 = load ptr, ptr %4, align 8
  %7 = load ptr, ptr %5, align 8
  %8 = getelementptr inbounds ptr, ptr %7, i64 10
  %9 = load ptr, ptr %8, align 8
  %10 = call noundef i32 %9(ptr noundef nonnull align 8 dereferenceable(16) %5)
  %11 = call noundef ptr @_ZN6google8protobuf20SerializeToArrayImplERKNS0_11MessageLiteEPhi(ptr noundef nonnull align 8 dereferenceable(16) %5, ptr noundef %6, i32 noundef %10)
  ret ptr %11
}